; Function Attrs: mustprogress nofree norecurse nosync nounwind willreturn memory(argmem: read) uwtable
define dso_local i64 @archive_entry_rdevmajor(ptr noundef readonly captures(none) %0) local_unnamed_addr #10 {
  %2 = getelementptr inbounds nuw i8, ptr %0, i64 192
  %3 = load i32, ptr %2, align 8, !tbaa !31
  %4 = and i32 %3, 8192
  %.not = icmp eq i32 %4, 0
  br i1 %.not, label %19, label %5

5:                                                ; preds = %1
  %6 = getelementptr inbounds nuw i8, ptr %0, i64 160
  %7 = load i32, ptr %6, align 8, !tbaa !72
  %.not4 = icmp eq i32 %7, 0
  br i1 %.not4, label %11, label %8

8:                                                ; preds = %5
  %9 = getelementptr inbounds nuw i8, ptr %0, i64 176
  %10 = load i64, ptr %9, align 8, !tbaa !73
  br label %19

11:                                               ; preds = %5
  %12 = getelementptr inbounds nuw i8, ptr %0, i64 168
  %13 = load i64, ptr %12, align 8, !tbaa !75
  %14 = lshr i64 %13, 8
  %15 = and i64 %14, 4095
  %16 = lshr i64 %13, 32
  %17 = and i64 %16, 4294963200
  %18 = or disjoint i64 %15, %17
  br label %19

19:                                               ; preds = %1, %11, %8
  %.0 = phi i64 [ %10, %8 ], [ %18, %11 ], [ 0, %1 ]
  ret i64 %.0
}